; Function Attrs: mustprogress uwtable
define void @_Z9PrintSuitB5cxx11t(ptr dead_on_unwind noalias writable sret(%"class.std::__cxx11::basic_string") align 8 %0, i16 noundef zeroext %1) local_unnamed_addr #3 personality ptr @__gxx_personality_v0 {
  %3 = alloca %"class.std::allocator", align 1
  %.not = icmp eq i16 %1, 0
  br i1 %.not, label %4, label %10

4:                                                ; preds = %2
  call void @_ZNSaIcEC1Ev(ptr noundef nonnull align 1 dereferenceable(1) %3) #12
  %5 = invoke noundef ptr @_ZNSt7__cxx1112basic_stringIcSt11char_traitsIcESaIcEE13_M_local_dataEv(ptr noundef nonnull align 8 dereferenceable(32) %0)
          to label %.noexc unwind label %8

.noexc:                                           ; preds = %4
  invoke void @_ZNSt7__cxx1112basic_stringIcSt11char_traitsIcESaIcEE12_Alloc_hiderC1EPcRKS3_(ptr noundef nonnull align 8 dereferenceable(32) %0, ptr noundef %5, ptr noundef nonnull align 1 dereferenceable(1) %3)
          to label %.noexc13 unwind label %8

.noexc13:                                         ; preds = %.noexc
  invoke void @_ZNSt7__cxx1112basic_stringIcSt11char_traitsIcESaIcEE12_M_constructIPKcEEvT_S8_St20forward_iterator_tag(ptr noundef nonnull align 8 dereferenceable(32) %0, ptr noundef nonnull @.str, ptr noundef nonnull getelementptr inbounds nuw (i8, ptr @.str, i64 2))
          to label %_ZNSt7__cxx1112basic_stringIcSt11char_traitsIcESaIcEEC2IS3_EEPKcRKS3_.exit unwind label %6

6:                                                ; preds = %.noexc13
  %7 = landingpad { ptr, i32 }
          cleanup
  call void @_ZNSaIcED2Ev(ptr noundef nonnull align 8 dereferenceable(32) %0) #12
  br label %.body

_ZNSt7__cxx1112basic_stringIcSt11char_traitsIcESaIcEEC2IS3_EEPKcRKS3_.exit: ; preds = %.noexc13
  call void @_ZNSaIcED1Ev(ptr noundef nonnull align 1 dereferenceable(1) %3) #12
  br label %.loopexit

8:                                                ; preds = %.noexc, %4
  %9 = landingpad { ptr, i32 }
          cleanup
  br label %.body

.body:                                            ; preds = %6, %8
  %eh.lpad-body = phi { ptr, i32 } [ %9, %8 ], [ %7, %6 ]
  call void @_ZNSaIcED1Ev(ptr noundef nonnull align 1 dereferenceable(1) %3) #12
  br label %23

10:                                               ; preds = %2
  tail call void @_ZNSt7__cxx1112basic_stringIcSt11char_traitsIcESaIcEEC1Ev(ptr noundef nonnull align 8 dereferenceable(32) %0) #12
  br label %11

11:                                               ; preds = %10, %21
  %indvars.iv = phi i64 [ 14, %10 ], [ %indvars.iv.next, %21 ]
  %12 = getelementptr inbounds nuw [16 x i16], ptr @bitMapRank, i64 0, i64 %indvars.iv
  %13 = load i16, ptr %12, align 2
  %14 = and i16 %13, %1
  %.not11 = icmp eq i16 %14, 0
  br i1 %.not11, label %21, label %15

15:                                               ; preds = %11
  %16 = getelementptr inbounds nuw [16 x i8], ptr @cardRank, i64 0, i64 %indvars.iv
  %17 = load i8, ptr %16, align 1
  %18 = invoke noundef nonnull align 8 dereferenceable(32) ptr @_ZNSt7__cxx1112basic_stringIcSt11char_traitsIcESaIcEEpLEc(ptr noundef nonnull align 8 dereferenceable(32) %0, i8 noundef signext %17)
          to label %21 unwind label %19

19:                                               ; preds = %15
  %20 = landingpad { ptr, i32 }
          cleanup
  tail call void @_ZNSt7__cxx1112basic_stringIcSt11char_traitsIcESaIcEED1Ev(ptr noundef nonnull align 8 dereferenceable(32) %0) #12
  br label %23

21:                                               ; preds = %11, %15
  %indvars.iv.next = add nsw i64 %indvars.iv, -1
  %22 = icmp ugt i64 %indvars.iv, 2
  br i1 %22, label %11, label %.loopexit, !llvm.loop !4

.loopexit:                                        ; preds = %21, %_ZNSt7__cxx1112basic_stringIcSt11char_traitsIcESaIcEEC2IS3_EEPKcRKS3_.exit
  ret void

23:                                               ; preds = %19, %.body
  %.pn = phi { ptr, i32 } [ %20, %19 ], [ %eh.lpad-body, %.body ]
  resume { ptr, i32 } %.pn
}